; ModuleID = 'source-C-CXX/51/5763.cpp'
source_filename = "source-C-CXX/51/5763.cpp"
target datalayout = "e-m:e-p270:32:32-p271:32:32-p272:64:64-i64:64-f80:128-n8:16:32:64-S128"
target triple = "x86_64-pc-linux-gnu"

%"class.std::ios_base::Init" = type { i8 }
%"class.std::basic_istream" = type { i32 (...)**, i64, %"class.std::basic_ios" }
%"class.std::basic_ios" = type { %"class.std::ios_base", %"class.std::basic_ostream"*, i8, i8, %"class.std::basic_streambuf"*, %"class.std::ctype"*, %"class.std::num_put"*, %"class.std::num_get"* }
%"class.std::ios_base" = type { i32 (...)**, i64, i64, i32, i32, i32, %"struct.std::ios_base::_Callback_list"*, %"struct.std::ios_base::_Words", [8 x %"struct.std::ios_base::_Words"], i32, %"struct.std::ios_base::_Words"*, %"class.std::locale" }
%"struct.std::ios_base::_Callback_list" = type { %"struct.std::ios_base::_Callback_list"*, void (i32, %"class.std::ios_base"*, i32)*, i32, i32 }
%"struct.std::ios_base::_Words" = type { i8*, i64 }
%"class.std::locale" = type { %"class.std::locale::_Impl"* }
%"class.std::locale::_Impl" = type { i32, %"class.std::locale::facet"**, i64, %"class.std::locale::facet"**, i8** }
%"class.std::locale::facet" = type <{ i32 (...)**, i32, [4 x i8] }>
%"class.std::basic_ostream" = type { i32 (...)**, %"class.std::basic_ios" }
%"class.std::basic_streambuf" = type { i32 (...)**, i8*, i8*, i8*, i8*, i8*, i8*, %"class.std::locale" }
%"class.std::ctype" = type <{ %"class.std::locale::facet.base", [4 x i8], %struct.__locale_struct*, i8, [7 x i8], i32*, i32*, i16*, i8, [256 x i8], [256 x i8], i8, [6 x i8] }>
%"class.std::locale::facet.base" = type <{ i32 (...)**, i32 }>
%struct.__locale_struct = type { [13 x %struct.__locale_data*], i16*, i32*, i32*, [13 x i8*] }
%struct.__locale_data = type opaque
%"class.std::num_put" = type { %"class.std::locale::facet.base", [4 x i8] }
%"class.std::num_get" = type { %"class.std::locale::facet.base", [4 x i8] }

@_ZStL8__ioinit = internal global %"class.std::ios_base::Init" zeroinitializer, align 1
@__dso_handle = external hidden global i8
@_ZSt3cin = external global %"class.std::basic_istream", align 8
@_ZSt4cout = external global %"class.std::basic_ostream", align 8
@.str = private unnamed_addr constant [2 x i8] c" \00", align 1
@llvm.global_ctors = appending global [1 x { i32, void ()*, i8* }] [{ i32, void ()*, i8* } { i32 65535, void ()* @_GLOBAL__sub_I_5763.cpp, i8* null }]

declare void @_ZNSt8ios_base4InitC1Ev(%"class.std::ios_base::Init"* nonnull align 1 dereferenceable(1)) unnamed_addr #0

; Function Attrs: nounwind
declare void @_ZNSt8ios_base4InitD1Ev(%"class.std::ios_base::Init"* nonnull align 1 dereferenceable(1)) unnamed_addr #1

; Function Attrs: nofree nounwind
declare i32 @__cxa_atexit(void (i8*)*, i8*, i8*) local_unnamed_addr #2

; Function Attrs: mustprogress norecurse sspstrong uwtable
define dso_local i32 @main() local_unnamed_addr #3 {
  %1 = alloca i32, align 4
  %2 = alloca i32, align 4
  %3 = alloca [100 x i32], align 16
  %4 = bitcast i32* %1 to i8*
  call void @llvm.lifetime.start.p0i8(i64 4, i8* nonnull %4) #6
  %5 = bitcast i32* %2 to i8*
  call void @llvm.lifetime.start.p0i8(i64 4, i8* nonnull %5) #6
  %6 = call nonnull align 8 dereferenceable(16) %"class.std::basic_istream"* @_ZNSirsERi(%"class.std::basic_istream"* nonnull align 8 dereferenceable(16) @_ZSt3cin, i32* nonnull align 4 dereferenceable(4) %1)
  %7 = call nonnull align 8 dereferenceable(16) %"class.std::basic_istream"* @_ZNSirsERi(%"class.std::basic_istream"* nonnull align 8 dereferenceable(16) %6, i32* nonnull align 4 dereferenceable(4) %2)
  %8 = bitcast [100 x i32]* %3 to i8*
  call void @llvm.lifetime.start.p0i8(i64 400, i8* nonnull %8) #6
  %9 = load i32, i32* %1, align 4, !tbaa !5
  %10 = icmp sgt i32 %9, 0
  br i1 %10, label %127, label %11

11:                                               ; preds = %127, %0
  %12 = phi i32 [ %9, %0 ], [ %132, %127 ]
  %13 = sext i32 %12 to i64
  %14 = load i32, i32* %2, align 4, !tbaa !5
  %15 = sub i32 %12, %14
  %16 = getelementptr inbounds [100 x i32], [100 x i32]* %3, i64 0, i64 %13
  %17 = icmp sgt i32 %15, 0
  br i1 %17, label %18, label %135

18:                                               ; preds = %11
  %19 = zext i32 %15 to i64
  %20 = icmp ult i32 %15, 8
  br i1 %20, label %109, label %21

21:                                               ; preds = %18
  %22 = getelementptr [100 x i32], [100 x i32]* %3, i64 0, i64 %13
  %23 = add nsw i64 %13, %19
  %24 = getelementptr [100 x i32], [100 x i32]* %3, i64 0, i64 %23
  %25 = getelementptr [100 x i32], [100 x i32]* %3, i64 0, i64 %19
  %26 = icmp ult i32* %22, %25
  %27 = bitcast i32* %24 to [100 x i32]*
  %28 = icmp ult [100 x i32]* %3, %27
  %29 = and i1 %26, %28
  br i1 %29, label %109, label %30

30:                                               ; preds = %21
  %31 = and i64 %19, 4294967288
  %32 = add nsw i64 %31, -8
  %33 = lshr exact i64 %32, 3
  %34 = add nuw nsw i64 %33, 1
  %35 = and i64 %34, 3
  %36 = icmp ult i64 %32, 24
  br i1 %36, label %88, label %37

37:                                               ; preds = %30
  %38 = and i64 %34, 4611686018427387900
  br label %39

39:                                               ; preds = %39, %37
  %40 = phi i64 [ 0, %37 ], [ %85, %39 ]
  %41 = phi i64 [ %38, %37 ], [ %86, %39 ]
  %42 = getelementptr inbounds [100 x i32], [100 x i32]* %3, i64 0, i64 %40
  %43 = bitcast i32* %42 to <4 x i32>*
  %44 = load <4 x i32>, <4 x i32>* %43, align 16, !tbaa !5, !alias.scope !9
  %45 = getelementptr inbounds i32, i32* %42, i64 4
  %46 = bitcast i32* %45 to <4 x i32>*
  %47 = load <4 x i32>, <4 x i32>* %46, align 16, !tbaa !5, !alias.scope !9
  %48 = getelementptr inbounds i32, i32* %16, i64 %40
  %49 = bitcast i32* %48 to <4 x i32>*
  store <4 x i32> %44, <4 x i32>* %49, align 4, !tbaa !5, !alias.scope !12, !noalias !9
  %50 = getelementptr inbounds i32, i32* %48, i64 4
  %51 = bitcast i32* %50 to <4 x i32>*
  store <4 x i32> %47, <4 x i32>* %51, align 4, !tbaa !5, !alias.scope !12, !noalias !9
  %52 = or i64 %40, 8
  %53 = getelementptr inbounds [100 x i32], [100 x i32]* %3, i64 0, i64 %52
  %54 = bitcast i32* %53 to <4 x i32>*
  %55 = load <4 x i32>, <4 x i32>* %54, align 16, !tbaa !5, !alias.scope !9
  %56 = getelementptr inbounds i32, i32* %53, i64 4
  %57 = bitcast i32* %56 to <4 x i32>*
  %58 = load <4 x i32>, <4 x i32>* %57, align 16, !tbaa !5, !alias.scope !9
  %59 = getelementptr inbounds i32, i32* %16, i64 %52
  %60 = bitcast i32* %59 to <4 x i32>*
  store <4 x i32> %55, <4 x i32>* %60, align 4, !tbaa !5, !alias.scope !12, !noalias !9
  %61 = getelementptr inbounds i32, i32* %59, i64 4
  %62 = bitcast i32* %61 to <4 x i32>*
  store <4 x i32> %58, <4 x i32>* %62, align 4, !tbaa !5, !alias.scope !12, !noalias !9
  %63 = or i64 %40, 16
  %64 = getelementptr inbounds [100 x i32], [100 x i32]* %3, i64 0, i64 %63
  %65 = bitcast i32* %64 to <4 x i32>*
  %66 = load <4 x i32>, <4 x i32>* %65, align 16, !tbaa !5, !alias.scope !9
  %67 = getelementptr inbounds i32, i32* %64, i64 4
  %68 = bitcast i32* %67 to <4 x i32>*
  %69 = load <4 x i32>, <4 x i32>* %68, align 16, !tbaa !5, !alias.scope !9
  %70 = getelementptr inbounds i32, i32* %16, i64 %63
  %71 = bitcast i32* %70 to <4 x i32>*
  store <4 x i32> %66, <4 x i32>* %71, align 4, !tbaa !5, !alias.scope !12, !noalias !9
  %72 = getelementptr inbounds i32, i32* %70, i64 4
  %73 = bitcast i32* %72 to <4 x i32>*
  store <4 x i32> %69, <4 x i32>* %73, align 4, !tbaa !5, !alias.scope !12, !noalias !9
  %74 = or i64 %40, 24
  %75 = getelementptr inbounds [100 x i32], [100 x i32]* %3, i64 0, i64 %74
  %76 = bitcast i32* %75 to <4 x i32>*
  %77 = load <4 x i32>, <4 x i32>* %76, align 16, !tbaa !5, !alias.scope !9
  %78 = getelementptr inbounds i32, i32* %75, i64 4
  %79 = bitcast i32* %78 to <4 x i32>*
  %80 = load <4 x i32>, <4 x i32>* %79, align 16, !tbaa !5, !alias.scope !9
  %81 = getelementptr inbounds i32, i32* %16, i64 %74
  %82 = bitcast i32* %81 to <4 x i32>*
  store <4 x i32> %77, <4 x i32>* %82, align 4, !tbaa !5, !alias.scope !12, !noalias !9
  %83 = getelementptr inbounds i32, i32* %81, i64 4
  %84 = bitcast i32* %83 to <4 x i32>*
  store <4 x i32> %80, <4 x i32>* %84, align 4, !tbaa !5, !alias.scope !12, !noalias !9
  %85 = add nuw i64 %40, 32
  %86 = add i64 %41, -4
  %87 = icmp eq i64 %86, 0
  br i1 %87, label %88, label %39, !llvm.loop !14

88:                                               ; preds = %39, %30
  %89 = phi i64 [ 0, %30 ], [ %85, %39 ]
  %90 = icmp eq i64 %35, 0
  br i1 %90, label %107, label %91

91:                                               ; preds = %88, %91
  %92 = phi i64 [ %104, %91 ], [ %89, %88 ]
  %93 = phi i64 [ %105, %91 ], [ %35, %88 ]
  %94 = getelementptr inbounds [100 x i32], [100 x i32]* %3, i64 0, i64 %92
  %95 = bitcast i32* %94 to <4 x i32>*
  %96 = load <4 x i32>, <4 x i32>* %95, align 16, !tbaa !5, !alias.scope !9
  %97 = getelementptr inbounds i32, i32* %94, i64 4
  %98 = bitcast i32* %97 to <4 x i32>*
  %99 = load <4 x i32>, <4 x i32>* %98, align 16, !tbaa !5, !alias.scope !9
  %100 = getelementptr inbounds i32, i32* %16, i64 %92
  %101 = bitcast i32* %100 to <4 x i32>*
  store <4 x i32> %96, <4 x i32>* %101, align 4, !tbaa !5, !alias.scope !12, !noalias !9
  %102 = getelementptr inbounds i32, i32* %100, i64 4
  %103 = bitcast i32* %102 to <4 x i32>*
  store <4 x i32> %99, <4 x i32>* %103, align 4, !tbaa !5, !alias.scope !12, !noalias !9
  %104 = add nuw i64 %92, 8
  %105 = add i64 %93, -1
  %106 = icmp eq i64 %105, 0
  br i1 %106, label %107, label %91, !llvm.loop !17

107:                                              ; preds = %91, %88
  %108 = icmp eq i64 %31, %19
  br i1 %108, label %135, label %109

109:                                              ; preds = %21, %18, %107
  %110 = phi i64 [ 0, %21 ], [ 0, %18 ], [ %31, %107 ]
  %111 = xor i64 %110, -1
  %112 = add nsw i64 %111, %19
  %113 = and i64 %19, 3
  %114 = icmp eq i64 %113, 0
  br i1 %114, label %124, label %115

115:                                              ; preds = %109, %115
  %116 = phi i64 [ %121, %115 ], [ %110, %109 ]
  %117 = phi i64 [ %122, %115 ], [ %113, %109 ]
  %118 = getelementptr inbounds [100 x i32], [100 x i32]* %3, i64 0, i64 %116
  %119 = load i32, i32* %118, align 4, !tbaa !5
  %120 = getelementptr inbounds i32, i32* %16, i64 %116
  store i32 %119, i32* %120, align 4, !tbaa !5
  %121 = add nuw nsw i64 %116, 1
  %122 = add i64 %117, -1
  %123 = icmp eq i64 %122, 0
  br i1 %123, label %124, label %115, !llvm.loop !19

124:                                              ; preds = %115, %109
  %125 = phi i64 [ %110, %109 ], [ %121, %115 ]
  %126 = icmp ult i64 %112, 3
  br i1 %126, label %135, label %145

127:                                              ; preds = %0, %127
  %128 = phi i64 [ %131, %127 ], [ 0, %0 ]
  %129 = getelementptr inbounds [100 x i32], [100 x i32]* %3, i64 0, i64 %128
  %130 = call nonnull align 8 dereferenceable(16) %"class.std::basic_istream"* @_ZNSirsERi(%"class.std::basic_istream"* nonnull align 8 dereferenceable(16) @_ZSt3cin, i32* nonnull align 4 dereferenceable(4) %129)
  %131 = add nuw nsw i64 %128, 1
  %132 = load i32, i32* %1, align 4, !tbaa !5
  %133 = sext i32 %132 to i64
  %134 = icmp slt i64 %131, %133
  br i1 %134, label %127, label %11, !llvm.loop !20

135:                                              ; preds = %124, %145, %107, %11
  %136 = sext i32 %14 to i64
  %137 = sub nsw i64 0, %136
  %138 = getelementptr inbounds i32, i32* %16, i64 %137
  %139 = icmp sgt i32 %12, 0
  br i1 %139, label %140, label %164

140:                                              ; preds = %135
  %141 = load i32, i32* %138, align 4, !tbaa !5
  %142 = call nonnull align 8 dereferenceable(8) %"class.std::basic_ostream"* @_ZNSolsEi(%"class.std::basic_ostream"* nonnull align 8 dereferenceable(8) @_ZSt4cout, i32 %141)
  %143 = load i32, i32* %1, align 4, !tbaa !5
  %144 = icmp sgt i32 %143, 1
  br i1 %144, label %165, label %164

145:                                              ; preds = %124, %145
  %146 = phi i64 [ %162, %145 ], [ %125, %124 ]
  %147 = getelementptr inbounds [100 x i32], [100 x i32]* %3, i64 0, i64 %146
  %148 = load i32, i32* %147, align 4, !tbaa !5
  %149 = getelementptr inbounds i32, i32* %16, i64 %146
  store i32 %148, i32* %149, align 4, !tbaa !5
  %150 = add nuw nsw i64 %146, 1
  %151 = getelementptr inbounds [100 x i32], [100 x i32]* %3, i64 0, i64 %150
  %152 = load i32, i32* %151, align 4, !tbaa !5
  %153 = getelementptr inbounds i32, i32* %16, i64 %150
  store i32 %152, i32* %153, align 4, !tbaa !5
  %154 = add nuw nsw i64 %146, 2
  %155 = getelementptr inbounds [100 x i32], [100 x i32]* %3, i64 0, i64 %154
  %156 = load i32, i32* %155, align 4, !tbaa !5
  %157 = getelementptr inbounds i32, i32* %16, i64 %154
  store i32 %156, i32* %157, align 4, !tbaa !5
  %158 = add nuw nsw i64 %146, 3
  %159 = getelementptr inbounds [100 x i32], [100 x i32]* %3, i64 0, i64 %158
  %160 = load i32, i32* %159, align 4, !tbaa !5
  %161 = getelementptr inbounds i32, i32* %16, i64 %158
  store i32 %160, i32* %161, align 4, !tbaa !5
  %162 = add nuw nsw i64 %146, 4
  %163 = icmp eq i64 %162, %19
  br i1 %163, label %135, label %145, !llvm.loop !21

164:                                              ; preds = %165, %140, %135
  call void @llvm.lifetime.end.p0i8(i64 400, i8* nonnull %8) #6
  call void @llvm.lifetime.end.p0i8(i64 4, i8* nonnull %5) #6
  call void @llvm.lifetime.end.p0i8(i64 4, i8* nonnull %4) #6
  ret i32 0

165:                                              ; preds = %140, %165
  %166 = phi i64 [ %172, %165 ], [ 1, %140 ]
  %167 = call nonnull align 8 dereferenceable(8) %"class.std::basic_ostream"* @_ZSt16__ostream_insertIcSt11char_traitsIcEERSt13basic_ostreamIT_T0_ES6_PKS3_l(%"class.std::basic_ostream"* nonnull align 8 dereferenceable(8) @_ZSt4cout, i8* nonnull getelementptr inbounds ([2 x i8], [2 x i8]* @.str, i64 0, i64 0), i64 1)
  %168 = getelementptr inbounds i32, i32* %138, i64 %166
  %169 = load i32, i32* %168, align 4, !tbaa !5
  %170 = call nonnull align 8 dereferenceable(8) %"class.std::basic_ostream"* @_ZNSolsEi(%"class.std::basic_ostream"* nonnull align 8 dereferenceable(8) @_ZSt4cout, i32 %169)
  %171 = load i32, i32* %1, align 4, !tbaa !5
  %172 = add nuw nsw i64 %166, 1
  %173 = sext i32 %171 to i64
  %174 = icmp slt i64 %172, %173
  br i1 %174, label %165, label %164, !llvm.loop !22
}

; Function Attrs: argmemonly mustprogress nofree nosync nounwind willreturn
declare void @llvm.lifetime.start.p0i8(i64 immarg, i8* nocapture) #4

declare nonnull align 8 dereferenceable(16) %"class.std::basic_istream"* @_ZNSirsERi(%"class.std::basic_istream"* nonnull align 8 dereferenceable(16), i32* nonnull align 4 dereferenceable(4)) local_unnamed_addr #0

; Function Attrs: argmemonly mustprogress nofree nosync nounwind willreturn
declare void @llvm.lifetime.end.p0i8(i64 immarg, i8* nocapture) #4

declare nonnull align 8 dereferenceable(8) %"class.std::basic_ostream"* @_ZNSolsEi(%"class.std::basic_ostream"* nonnull align 8 dereferenceable(8), i32) local_unnamed_addr #0

declare nonnull align 8 dereferenceable(8) %"class.std::basic_ostream"* @_ZSt16__ostream_insertIcSt11char_traitsIcEERSt13basic_ostreamIT_T0_ES6_PKS3_l(%"class.std::basic_ostream"* nonnull align 8 dereferenceable(8), i8*, i64) local_unnamed_addr #0

; Function Attrs: sspstrong uwtable
define internal void @_GLOBAL__sub_I_5763.cpp() #5 section ".text.startup" {
  tail call void @_ZNSt8ios_base4InitC1Ev(%"class.std::ios_base::Init"* nonnull align 1 dereferenceable(1) @_ZStL8__ioinit)
  %1 = tail call i32 @__cxa_atexit(void (i8*)* bitcast (void (%"class.std::ios_base::Init"*)* @_ZNSt8ios_base4InitD1Ev to void (i8*)*), i8* getelementptr inbounds (%"class.std::ios_base::Init", %"class.std::ios_base::Init"* @_ZStL8__ioinit, i64 0, i32 0), i8* nonnull @__dso_handle) #6
  ret void
}


!llvm.module.flags = !{!0, !1, !2, !3}
!llvm.ident = !{!4}

!0 = !{i32 1, !"wchar_size", i32 4}
!1 = !{i32 7, !"PIC Level", i32 2}
!2 = !{i32 7, !"PIE Level", i32 2}
!3 = !{i32 7, !"uwtable", i32 1}
!4 = !{!"clang version 13.0.0"}
!5 = !{!6, !6, i64 0}
!6 = !{!"int", !7, i64 0}
!7 = !{!"omnipotent char", !8, i64 0}
!8 = !{!"Simple C++ TBAA"}
!9 = !{!10}
!10 = distinct !{!10, !11}
!11 = distinct !{!11, !"LVerDomain"}
!12 = !{!13}
!13 = distinct !{!13, !11}
!14 = distinct !{!14, !15, !16}
!15 = !{!"llvm.loop.mustprogress"}
!16 = !{!"llvm.loop.isvectorized", i32 1}
!17 = distinct !{!17, !18}
!18 = !{!"llvm.loop.unroll.disable"}
!19 = distinct !{!19, !18}
!20 = distinct !{!20, !15}
!21 = distinct !{!21, !15, !16}
!22 = distinct !{!22, !15, !23}
!23 = !{!"llvm.loop.peeled.count", i32 1}
